	.text
	.file	"fib.cpp"
	.section	.text.startup,"ax",@progbits
	.p2align	4, 0x90                         # -- Begin function __cxx_global_var_init
	.type	__cxx_global_var_init,@function
__cxx_global_var_init:                  # @__cxx_global_var_init
	.cfi_startproc
# %bb.0:
	pushq	%rbp
	.cfi_def_cfa_offset 16
	.cfi_offset %rbp, -16
	movq	%rsp, %rbp
	.cfi_def_cfa_register %rbp
	movl	$_ZStL8__ioinit, %edi
	callq	_ZNSt8ios_base4InitC1Ev@PLT
	movq	_ZNSt8ios_base4InitD1Ev@GOTPCREL(%rip), %rdi
	movl	$_ZStL8__ioinit, %esi
	movl	$__dso_handle, %edx
	callq	__cxa_atexit@PLT
	popq	%rbp
	.cfi_def_cfa %rsp, 8
	retq
.Lfunc_end0:
	.size	__cxx_global_var_init, .Lfunc_end0-__cxx_global_var_init
	.cfi_endproc
                                        # -- End function
	.text
	.globl	main                            # -- Begin function main
	.p2align	4, 0x90
	.type	main,@function
main:                                   # @main
	.cfi_startproc
# %bb.0:
	pushq	%rbp
	.cfi_def_cfa_offset 16
	.cfi_offset %rbp, -16
	movq	%rsp, %rbp
	.cfi_def_cfa_register %rbp
	subq	$48, %rsp
	movl	$0, -28(%rbp)
	movl	$0, -16(%rbp)
	movl	$1, -4(%rbp)
	movl	$1, -12(%rbp)
	movq	_ZSt3cin@GOTPCREL(%rip), %rdi
	leaq	-20(%rbp), %rsi
	callq	_ZNSirsERi@PLT
	movl	-16(%rbp), %esi
	movq	_ZSt4cout@GOTPCREL(%rip), %rdi
	callq	_ZNSolsEi@PLT
	movq	_ZSt4endlIcSt11char_traitsIcEERSt13basic_ostreamIT_T0_ES6_@GOTPCREL(%rip), %rsi
	movq	%rax, %rdi
	callq	_ZNSolsEPFRSoS_E@PLT
	movl	-4(%rbp), %esi
	movq	_ZSt4cout@GOTPCREL(%rip), %rdi
	callq	_ZNSolsEi@PLT
	movq	_ZSt4endlIcSt11char_traitsIcEERSt13basic_ostreamIT_T0_ES6_@GOTPCREL(%rip), %rsi
	movq	%rax, %rdi
	callq	_ZNSolsEPFRSoS_E@PLT
.LBB1_1:                                # =>This Inner Loop Header: Depth=1
	movl	-12(%rbp), %eax
	cmpl	-20(%rbp), %eax
	jge	.LBB1_3
# %bb.2:                                #   in Loop: Header=BB1_1 Depth=1
	movl	-4(%rbp), %eax
	movl	%eax, -24(%rbp)
	movl	-16(%rbp), %eax
	addl	-4(%rbp), %eax
	movl	%eax, -4(%rbp)
	movl	-4(%rbp), %esi
	movq	_ZSt4cout@GOTPCREL(%rip), %rdi
	callq	_ZNSolsEi@PLT
	movq	_ZSt4endlIcSt11char_traitsIcEERSt13basic_ostreamIT_T0_ES6_@GOTPCREL(%rip), %rsi
	movq	%rax, %rdi
	callq	_ZNSolsEPFRSoS_E@PLT
	movl	-24(%rbp), %eax
	movl	%eax, -16(%rbp)
	movl	-12(%rbp), %eax
	addl	$1, %eax
	movl	%eax, -12(%rbp)
	jmp	.LBB1_1
.LBB1_3:
	movq	$0, -40(%rbp)
	movl	$0, -32(%rbp)
	movl	$0, -8(%rbp)
.LBB1_4:                                # =>This Inner Loop Header: Depth=1
	movl	-8(%rbp), %eax
	imull	-8(%rbp), %eax
	cmpl	$100, %eax
	jge	.LBB1_7
# %bb.5:                                #   in Loop: Header=BB1_4 Depth=1
	jmp	.LBB1_6
.LBB1_6:                                #   in Loop: Header=BB1_4 Depth=1
	movl	-8(%rbp), %eax
	addl	$1, %eax
	movl	%eax, -8(%rbp)
	jmp	.LBB1_4
.LBB1_7:
	movl	-28(%rbp), %eax
	addq	$48, %rsp
	popq	%rbp
	.cfi_def_cfa %rsp, 8
	retq
.Lfunc_end1:
	.size	main, .Lfunc_end1-main
	.cfi_endproc
                                        # -- End function
	.section	.text.startup,"ax",@progbits
	.p2align	4, 0x90                         # -- Begin function _GLOBAL__sub_I_fib.cpp
	.type	_GLOBAL__sub_I_fib.cpp,@function
_GLOBAL__sub_I_fib.cpp:                 # @_GLOBAL__sub_I_fib.cpp
	.cfi_startproc
# %bb.0:
	pushq	%rbp
	.cfi_def_cfa_offset 16
	.cfi_offset %rbp, -16
	movq	%rsp, %rbp
	.cfi_def_cfa_register %rbp
	callq	__cxx_global_var_init
	popq	%rbp
	.cfi_def_cfa %rsp, 8
	retq
.Lfunc_end2:
	.size	_GLOBAL__sub_I_fib.cpp, .Lfunc_end2-_GLOBAL__sub_I_fib.cpp
	.cfi_endproc
                                        # -- End function
	.type	_ZStL8__ioinit,@object          # @_ZStL8__ioinit
	.local	_ZStL8__ioinit
	.comm	_ZStL8__ioinit,1,1
	.hidden	__dso_handle
	.section	.init_array,"aw",@init_array
	.p2align	3
	.quad	_GLOBAL__sub_I_fib.cpp
	.ident	"Ubuntu clang version 14.0.0-1ubuntu1"
	.section	".note.GNU-stack","",@progbits
